; Function Attrs: mustprogress uwtable
define dso_local void @_ZN9cmProcess10StartTimerEv(ptr noundef nonnull align 8 dereferenceable(316) %0) local_unnamed_addr #3 align 2 {
  %2 = getelementptr inbounds nuw i8, ptr %0, i64 8
  %3 = load i8, ptr %2, align 8
  %4 = trunc i8 %3 to i1
  br i1 %4, label %5, label %11

5:                                                ; preds = %1
  %6 = load double, ptr %0, align 8
  %7 = fmul double %6, 1.000000e+03
  %8 = fptosi double %7 to i64
  %9 = getelementptr inbounds nuw i8, ptr %0, i64 80
  %10 = tail call noundef i32 @_ZN2cm12uv_timer_ptr5startEPFvP10uv_timer_sEmm(ptr noundef nonnull align 8 dereferenceable(16) %9, ptr noundef nonnull @_ZN9cmProcess11OnTimeoutCBEP10uv_timer_s, i64 noundef %8, i64 noundef 0)
  br label %11

11:                                               ; preds = %5, %1
  ret void
}